target datalayout = "e-m:e-p270:32:32-p271:32:32-p272:64:64-i64:64-i128:128-f80:128-n8:16:32:64-S128"
target triple = "x86_64-pc-linux-gnu"

%struct.TESTDATA = type { ptr, ptr }

@.str = private unnamed_addr constant [26 x i8] c"../openssl/test/pemtest.c\00", align 1
@b64_pem_data = internal global [2 x %struct.TESTDATA] [%struct.TESTDATA { ptr @.str.20, ptr @.str.21 }, %struct.TESTDATA { ptr @.str.22, ptr @.str.23 }], align 16
@.str.7 = private unnamed_addr constant [2 x i8] c"b\00", align 1
@.str.8 = private unnamed_addr constant [47 x i8] c"BIO_printf(b, \22-----BEGIN %s-----\\n\22, pemtype)\00", align 1
@.str.9 = private unnamed_addr constant [20 x i8] c"-----BEGIN %s-----\0A\00", align 1
@pemtype = internal global ptr @.str.24, align 8
@.str.12 = private unnamed_addr constant [45 x i8] c"BIO_printf(b, \22-----END %s-----\\n\22, pemtype)\00", align 1
@.str.13 = private unnamed_addr constant [18 x i8] c"-----END %s-----\0A\00", align 1
@.str.14 = private unnamed_addr constant [67 x i8] c"PEM_read_bio_ex(b, &name, &header, &data, &len, PEM_FLAG_ONLY_B64)\00", align 1
@.str.25 = private unnamed_addr constant [39 x i8] c"BIO_printf(b, \22%c%s\\n\22, '\\t', encoded)\00", align 1
@.str.26 = private unnamed_addr constant [6 x i8] c"%c%s\0A\00", align 1

; Function Attrs: nounwind uwtable
define internal i32 @test_invalid() #0 {
  %1 = alloca i32, align 4
  %2 = alloca ptr, align 8
  %3 = alloca ptr, align 8
  %4 = alloca ptr, align 8
  %5 = alloca ptr, align 8
  %6 = alloca i64, align 8
  %7 = alloca ptr, align 8
  %8 = alloca i32, align 4
  call void @llvm.lifetime.start.p0(i64 8, ptr %2) #4
  %9 = call ptr @BIO_s_mem()
  %10 = call ptr @BIO_new(ptr noundef %9)
  store ptr %10, ptr %2, align 8, !tbaa !11
  call void @llvm.lifetime.start.p0(i64 8, ptr %3) #4
  store ptr null, ptr %3, align 8, !tbaa !4
  call void @llvm.lifetime.start.p0(i64 8, ptr %4) #4
  store ptr null, ptr %4, align 8, !tbaa !4
  call void @llvm.lifetime.start.p0(i64 8, ptr %5) #4
  store ptr null, ptr %5, align 8, !tbaa !4
  call void @llvm.lifetime.start.p0(i64 8, ptr %6) #4
  call void @llvm.lifetime.start.p0(i64 8, ptr %7) #4
  %11 = load ptr, ptr getelementptr inbounds nuw (%struct.TESTDATA, ptr @b64_pem_data, i32 0, i32 1), align 8, !tbaa !15
  store ptr %11, ptr %7, align 8, !tbaa !4
  %12 = load ptr, ptr %2, align 8, !tbaa !11
  %13 = call i32 @test_ptr(ptr noundef @.str, i32 noundef 71, ptr noundef @.str.7, ptr noundef %12)
  %14 = icmp ne i32 %13, 0
  br i1 %14, label %15, label %46

15:                                               ; preds = %0
  %16 = load ptr, ptr %2, align 8, !tbaa !11
  %17 = load ptr, ptr @pemtype, align 8, !tbaa !4
  %18 = call i32 (ptr, ptr, ...) @BIO_printf(ptr noundef %16, ptr noundef @.str.9, ptr noundef %17)
  %19 = icmp ne i32 %18, 0
  %20 = zext i1 %19 to i32
  %21 = call i32 @test_true(ptr noundef @.str, i32 noundef 72, ptr noundef @.str.8, i32 noundef %20)
  %22 = icmp ne i32 %21, 0
  br i1 %22, label %23, label %46

23:                                               ; preds = %15
  %24 = load ptr, ptr %2, align 8, !tbaa !11
  %25 = load ptr, ptr %7, align 8, !tbaa !4
  %26 = call i32 (ptr, ptr, ...) @BIO_printf(ptr noundef %24, ptr noundef @.str.26, i32 noundef 9, ptr noundef %25)
  %27 = icmp ne i32 %26, 0
  %28 = zext i1 %27 to i32
  %29 = call i32 @test_true(ptr noundef @.str, i32 noundef 73, ptr noundef @.str.25, i32 noundef %28)
  %30 = icmp ne i32 %29, 0
  br i1 %30, label %31, label %46

31:                                               ; preds = %23
  %32 = load ptr, ptr %2, align 8, !tbaa !11
  %33 = load ptr, ptr @pemtype, align 8, !tbaa !4
  %34 = call i32 (ptr, ptr, ...) @BIO_printf(ptr noundef %32, ptr noundef @.str.13, ptr noundef %33)
  %35 = icmp ne i32 %34, 0
  %36 = zext i1 %35 to i32
  %37 = call i32 @test_true(ptr noundef @.str, i32 noundef 74, ptr noundef @.str.12, i32 noundef %36)
  %38 = icmp ne i32 %37, 0
  br i1 %38, label %39, label %46

39:                                               ; preds = %31
  %40 = load ptr, ptr %2, align 8, !tbaa !11
  %41 = call i32 @PEM_read_bio_ex(ptr noundef %40, ptr noundef %3, ptr noundef %4, ptr noundef %5, ptr noundef %6, i32 noundef 4)
  %42 = icmp ne i32 %41, 0
  %43 = zext i1 %42 to i32
  %44 = call i32 @test_true(ptr noundef @.str, i32 noundef 77, ptr noundef @.str.14, i32 noundef %43)
  %45 = icmp ne i32 %44, 0
  br i1 %45, label %46, label %49

46:                                               ; preds = %39, %31, %23, %15, %0
  %47 = load ptr, ptr %2, align 8, !tbaa !11
  %48 = call i32 @BIO_free(ptr noundef %47)
  store i32 0, ptr %1, align 4
  store i32 1, ptr %8, align 4
  br label %55

49:                                               ; preds = %39
  %50 = load ptr, ptr %2, align 8, !tbaa !11
  %51 = call i32 @BIO_free(ptr noundef %50)
  %52 = load ptr, ptr %3, align 8, !tbaa !4
  call void @CRYPTO_free(ptr noundef %52, ptr noundef @.str, i32 noundef 82)
  %53 = load ptr, ptr %4, align 8, !tbaa !4
  call void @CRYPTO_free(ptr noundef %53, ptr noundef @.str, i32 noundef 83)
  %54 = load ptr, ptr %5, align 8, !tbaa !4
  call void @CRYPTO_free(ptr noundef %54, ptr noundef @.str, i32 noundef 84)
  store i32 1, ptr %1, align 4
  store i32 1, ptr %8, align 4
  br label %55

55:                                               ; preds = %49, %46
  call void @llvm.lifetime.end.p0(i64 8, ptr %7) #4
  call void @llvm.lifetime.end.p0(i64 8, ptr %6) #4
  call void @llvm.lifetime.end.p0(i64 8, ptr %5) #4
  call void @llvm.lifetime.end.p0(i64 8, ptr %4) #4
  call void @llvm.lifetime.end.p0(i64 8, ptr %3) #4
  call void @llvm.lifetime.end.p0(i64 8, ptr %2) #4
  %56 = load i32, ptr %1, align 4
  ret i32 %56
}