; Function Attrs: nounwind uwtable
define internal range(i32 0, 2) i32 @test_invalid() #0 {
  %1 = alloca ptr, align 8
  %2 = alloca ptr, align 8
  %3 = alloca ptr, align 8
  %4 = alloca i64, align 8
  %5 = tail call ptr @BIO_s_mem() #4
  %6 = tail call ptr @BIO_new(ptr noundef %5) #4
  call void @llvm.lifetime.start.p0(i64 8, ptr nonnull %1) #4
  store ptr null, ptr %1, align 8, !tbaa !4
  call void @llvm.lifetime.start.p0(i64 8, ptr nonnull %2) #4
  store ptr null, ptr %2, align 8, !tbaa !4
  call void @llvm.lifetime.start.p0(i64 8, ptr nonnull %3) #4
  store ptr null, ptr %3, align 8, !tbaa !4
  call void @llvm.lifetime.start.p0(i64 8, ptr nonnull %4) #4
  %7 = tail call i32 @test_ptr(ptr noundef nonnull @.str, i32 noundef 71, ptr noundef nonnull @.str.7, ptr noundef %6) #4
  %.not = icmp eq i32 %7, 0
  br i1 %.not, label %28, label %8

8:                                                ; preds = %0
  %9 = tail call i32 (ptr, ptr, ...) @BIO_printf(ptr noundef %6, ptr noundef nonnull @.str.9, ptr noundef nonnull @.str.24) #4
  %10 = icmp ne i32 %9, 0
  %11 = zext i1 %10 to i32
  %12 = tail call i32 @test_true(ptr noundef nonnull @.str, i32 noundef 72, ptr noundef nonnull @.str.8, i32 noundef %11) #4
  %.not8 = icmp eq i32 %12, 0
  br i1 %.not8, label %28, label %13

13:                                               ; preds = %8
  %14 = tail call i32 (ptr, ptr, ...) @BIO_printf(ptr noundef %6, ptr noundef nonnull @.str.26, i32 noundef 9, ptr noundef nonnull @.str.21) #4
  %15 = icmp ne i32 %14, 0
  %16 = zext i1 %15 to i32
  %17 = tail call i32 @test_true(ptr noundef nonnull @.str, i32 noundef 73, ptr noundef nonnull @.str.25, i32 noundef %16) #4
  %.not9 = icmp eq i32 %17, 0
  br i1 %.not9, label %28, label %18

18:                                               ; preds = %13
  %19 = tail call i32 (ptr, ptr, ...) @BIO_printf(ptr noundef %6, ptr noundef nonnull @.str.13, ptr noundef nonnull @.str.24) #4
  %20 = icmp ne i32 %19, 0
  %21 = zext i1 %20 to i32
  %22 = tail call i32 @test_true(ptr noundef nonnull @.str, i32 noundef 74, ptr noundef nonnull @.str.12, i32 noundef %21) #4
  %.not10 = icmp eq i32 %22, 0
  br i1 %.not10, label %28, label %23

23:                                               ; preds = %18
  %24 = call i32 @PEM_read_bio_ex(ptr noundef %6, ptr noundef nonnull %1, ptr noundef nonnull %2, ptr noundef nonnull %3, ptr noundef nonnull %4, i32 noundef 4) #4
  %25 = icmp ne i32 %24, 0
  %26 = zext i1 %25 to i32
  %27 = call i32 @test_true(ptr noundef nonnull @.str, i32 noundef 77, ptr noundef nonnull @.str.14, i32 noundef %26) #4
  %.not11 = icmp eq i32 %27, 0
  br i1 %.not11, label %30, label %28

28:                                               ; preds = %23, %18, %13, %8, %0
  %29 = call i32 @BIO_free(ptr noundef %6) #4
  br label %35

30:                                               ; preds = %23
  %31 = call i32 @BIO_free(ptr noundef %6) #4
  %32 = load ptr, ptr %1, align 8, !tbaa !4
  call void @CRYPTO_free(ptr noundef %32, ptr noundef nonnull @.str, i32 noundef 82) #4
  %33 = load ptr, ptr %2, align 8, !tbaa !4
  call void @CRYPTO_free(ptr noundef %33, ptr noundef nonnull @.str, i32 noundef 83) #4
  %34 = load ptr, ptr %3, align 8, !tbaa !4
  call void @CRYPTO_free(ptr noundef %34, ptr noundef nonnull @.str, i32 noundef 84) #4
  br label %35

35:                                               ; preds = %30, %28
  %.0 = phi i32 [ 0, %28 ], [ 1, %30 ]
  call void @llvm.lifetime.end.p0(i64 8, ptr nonnull %4) #4
  call void @llvm.lifetime.end.p0(i64 8, ptr nonnull %3) #4
  call void @llvm.lifetime.end.p0(i64 8, ptr nonnull %2) #4
  call void @llvm.lifetime.end.p0(i64 8, ptr nonnull %1) #4
  ret i32 %.0
}